; Function Attrs: nounwind uwtable
define range(i32 0, -2147483648) i32 @Cba_NtkPrepareBits(ptr noundef captures(none) %0) local_unnamed_addr #0 {
  %2 = getelementptr inbounds nuw i8, ptr %0, i64 248
  %3 = getelementptr inbounds nuw i8, ptr %0, i64 152
  %.val.i = load i32, ptr %3, align 8
  %4 = load i32, ptr %2, align 8
  %.not.i.i.i = icmp slt i32 %4, %.val.i
  br i1 %.not.i.i.i, label %5, label %Vec_IntGrow.exit.i.i

5:                                                ; preds = %1
  %6 = getelementptr inbounds nuw i8, ptr %0, i64 256
  %7 = load ptr, ptr %6, align 8
  %.not9.i.i.i = icmp eq ptr %7, null
  %8 = sext i32 %.val.i to i64
  %9 = shl nsw i64 %8, 2
  br i1 %.not9.i.i.i, label %12, label %10

10:                                               ; preds = %5
  %11 = tail call ptr @realloc(ptr noundef nonnull %7, i64 noundef %9) #18
  br label %14

12:                                               ; preds = %5
  %13 = tail call noalias ptr @malloc(i64 noundef %9) #19
  br label %14

14:                                               ; preds = %12, %10
  %15 = phi ptr [ %11, %10 ], [ %13, %12 ]
  store ptr %15, ptr %6, align 8
  store i32 %.val.i, ptr %2, align 8
  br label %Vec_IntGrow.exit.i.i

Vec_IntGrow.exit.i.i:                             ; preds = %14, %1
  %16 = icmp sgt i32 %.val.i, 0
  br i1 %16, label %.lr.ph.i.i, label %Cba_NtkCleanFonCopies.exit

.lr.ph.i.i:                                       ; preds = %Vec_IntGrow.exit.i.i
  %17 = getelementptr inbounds nuw i8, ptr %0, i64 256
  %wide.trip.count.i.i = zext nneg i32 %.val.i to i64
  br label %18

18:                                               ; preds = %18, %.lr.ph.i.i
  %indvars.iv.i.i = phi i64 [ 0, %.lr.ph.i.i ], [ %indvars.iv.next.i.i, %18 ]
  %19 = load ptr, ptr %17, align 8
  %20 = getelementptr inbounds nuw i32, ptr %19, i64 %indvars.iv.i.i
  store i32 0, ptr %20, align 4
  %indvars.iv.next.i.i = add nuw nsw i64 %indvars.iv.i.i, 1
  %exitcond.not.i.i = icmp eq i64 %indvars.iv.next.i.i, %wide.trip.count.i.i
  br i1 %exitcond.not.i.i, label %Cba_NtkCleanFonCopies.exit, label %18, !llvm.loop !4

Cba_NtkCleanFonCopies.exit:                       ; preds = %18, %Vec_IntGrow.exit.i.i
  %21 = getelementptr inbounds nuw i8, ptr %0, i64 252
  store i32 %.val.i, ptr %21, align 4
  %22 = getelementptr i8, ptr %0, i64 156
  %.val14 = load i32, ptr %22, align 4
  %23 = icmp sgt i32 %.val14, 1
  br i1 %23, label %.lr.ph, label %._crit_edge

.lr.ph:                                           ; preds = %Cba_NtkCleanFonCopies.exit
  %24 = getelementptr i8, ptr %0, i64 256
  %25 = getelementptr i8, ptr %0, i64 284
  %26 = getelementptr inbounds nuw i8, ptr %0, i64 280
  %27 = getelementptr i8, ptr %0, i64 288
  br label %28

28:                                               ; preds = %.lr.ph, %Cba_NtkRangeSize.exit.i
  %indvars.iv = phi i64 [ 1, %.lr.ph ], [ %.pre, %Cba_NtkRangeSize.exit.i ]
  %.016 = phi i32 [ 0, %.lr.ph ], [ %52, %Cba_NtkRangeSize.exit.i ]
  %.val11 = load ptr, ptr %24, align 8
  %29 = getelementptr inbounds nuw i32, ptr %.val11, i64 %indvars.iv
  store i32 %.016, ptr %29, align 4
  %.val.i.i.i = load i32, ptr %25, align 4
  %30 = icmp slt i32 %.val.i.i.i, 1
  %.pre = add nuw nsw i64 %indvars.iv, 1
  br i1 %30, label %Cba_NtkRangeSize.exit.i, label %Cba_FonRange.exit.i

Cba_FonRange.exit.i:                              ; preds = %28
  %31 = trunc nuw nsw i64 %.pre to i32
  tail call fastcc void @Vec_IntFillExtra(ptr noundef nonnull %26, i32 noundef %31, i32 noundef 0)
  %.val.i.i.i.i = load ptr, ptr %27, align 8
  %32 = getelementptr inbounds nuw i32, ptr %.val.i.i.i.i, i64 %indvars.iv
  %33 = load i32, ptr %32, align 4
  %.not.i.i.i13 = icmp ult i32 %33, 2
  br i1 %.not.i.i.i13, label %Cba_NtkRangeSize.exit.i, label %34

34:                                               ; preds = %Cba_FonRange.exit.i
  %35 = load ptr, ptr %0, align 8
  %36 = getelementptr inbounds nuw i8, ptr %35, i64 40
  %37 = load ptr, ptr %36, align 8
  %38 = getelementptr inbounds nuw i8, ptr %37, i64 8
  %39 = load ptr, ptr %38, align 8
  %40 = shl nsw i32 %33, 1
  %41 = and i32 %40, -4
  %42 = getelementptr i8, ptr %39, i64 8
  %.val.i.i.i.i.i = load ptr, ptr %42, align 8
  %43 = sext i32 %41 to i64
  %44 = getelementptr inbounds i32, ptr %.val.i.i.i.i.i, i64 %43
  %45 = load i32, ptr %44, align 4
  %46 = getelementptr inbounds nuw i8, ptr %44, i64 4
  %47 = load i32, ptr %46, align 4
  %48 = sub nsw i32 %45, %47
  br label %Cba_NtkRangeSize.exit.i

Cba_NtkRangeSize.exit.i:                          ; preds = %28, %34, %Cba_FonRange.exit.i
  %49 = phi i32 [ %48, %34 ], [ 0, %Cba_FonRange.exit.i ], [ 0, %28 ]
  %50 = tail call i32 @llvm.abs.i32(i32 %49, i1 true)
  %51 = add nuw nsw i32 %.016, 1
  %52 = add nuw nsw i32 %51, %50
  %.val = load i32, ptr %22, align 4
  %53 = sext i32 %.val to i64
  %54 = icmp slt i64 %.pre, %53
  br i1 %54, label %28, label %._crit_edge, !llvm.loop !6

._crit_edge:                                      ; preds = %Cba_NtkRangeSize.exit.i, %Cba_NtkCleanFonCopies.exit
  %.0.lcssa = phi i32 [ 0, %Cba_NtkCleanFonCopies.exit ], [ %52, %Cba_NtkRangeSize.exit.i ]
  ret i32 %.0.lcssa
}